target datalayout = "e-m:e-p270:32:32-p271:32:32-p272:64:64-i64:64-i128:128-f80:128-n8:16:32:64-S128"
target triple = "x86_64-pc-linux-gnu"

@_ZL9DECPOWERS = internal constant [10 x i32] [i32 1, i32 10, i32 100, i32 1000, i32 10000, i32 100000, i32 1000000, i32 10000000, i32 100000000, i32 1000000000], align 16
@_ZL8d2utable = internal constant [50 x i8] c"\00\01\02\03\04\05\06\07\08\09\0A\0B\0C\0D\0E\0F\10\11\12\13\14\15\16\17\18\19\1A\1B\1C\1D\1E\1F !\22#$%&'()*+,-./01", align 16

; Function Attrs: mustprogress uwtable
define internal noundef i32 @_ZL14decUnitComparePKhiS0_ii(ptr noundef %0, i32 noundef %1, ptr noundef %2, i32 noundef %3, i32 noundef %4) #0 {
  %6 = alloca i32, align 4
  %7 = alloca ptr, align 8
  %8 = alloca i32, align 4
  %9 = alloca ptr, align 8
  %10 = alloca i32, align 4
  %11 = alloca i32, align 4
  %12 = alloca ptr, align 8
  %13 = alloca [73 x i8], align 16
  %14 = alloca ptr, align 8
  %15 = alloca i32, align 4
  %16 = alloca i32, align 4
  %17 = alloca ptr, align 8
  %18 = alloca ptr, align 8
  %19 = alloca ptr, align 8
  %20 = alloca i32, align 4
  %21 = alloca i32, align 4
  %22 = alloca i32, align 4
  %23 = alloca i32, align 4
  store ptr %0, ptr %7, align 8, !tbaa !11
  store i32 %1, ptr %8, align 4, !tbaa !7
  store ptr %2, ptr %9, align 8, !tbaa !11
  store i32 %3, ptr %10, align 4, !tbaa !7
  store i32 %4, ptr %11, align 4, !tbaa !7
  call void @llvm.lifetime.start.p0(i64 8, ptr %12) #8
  call void @llvm.lifetime.start.p0(i64 73, ptr %13) #8
  call void @llvm.lifetime.start.p0(i64 8, ptr %14) #8
  store ptr null, ptr %14, align 8, !tbaa !11
  call void @llvm.lifetime.start.p0(i64 4, ptr %15) #8
  call void @llvm.lifetime.start.p0(i64 4, ptr %16) #8
  call void @llvm.lifetime.start.p0(i64 8, ptr %17) #8
  call void @llvm.lifetime.start.p0(i64 8, ptr %18) #8
  call void @llvm.lifetime.start.p0(i64 8, ptr %19) #8
  call void @llvm.lifetime.start.p0(i64 4, ptr %20) #8
  call void @llvm.lifetime.start.p0(i64 4, ptr %21) #8
  call void @llvm.lifetime.start.p0(i64 4, ptr %22) #8
  %24 = load i32, ptr %11, align 4, !tbaa !7
  %25 = icmp eq i32 %24, 0
  br i1 %25, label %26, label %76

26:                                               ; preds = %5
  %27 = load i32, ptr %8, align 4, !tbaa !7
  %28 = load i32, ptr %10, align 4, !tbaa !7
  %29 = icmp sgt i32 %27, %28
  br i1 %29, label %30, label %31

30:                                               ; preds = %26
  store i32 1, ptr %6, align 4
  store i32 1, ptr %23, align 4
  br label %213

31:                                               ; preds = %26
  %32 = load i32, ptr %8, align 4, !tbaa !7
  %33 = load i32, ptr %10, align 4, !tbaa !7
  %34 = icmp slt i32 %32, %33
  br i1 %34, label %35, label %36

35:                                               ; preds = %31
  store i32 -1, ptr %6, align 4
  store i32 1, ptr %23, align 4
  br label %213

36:                                               ; preds = %31
  %37 = load ptr, ptr %7, align 8, !tbaa !11
  %38 = load i32, ptr %8, align 4, !tbaa !7
  %39 = sext i32 %38 to i64
  %40 = getelementptr inbounds i8, ptr %37, i64 %39
  %41 = getelementptr inbounds i8, ptr %40, i64 -1
  store ptr %41, ptr %17, align 8, !tbaa !11
  %42 = load ptr, ptr %9, align 8, !tbaa !11
  %43 = load i32, ptr %8, align 4, !tbaa !7
  %44 = sext i32 %43 to i64
  %45 = getelementptr inbounds i8, ptr %42, i64 %44
  %46 = getelementptr inbounds i8, ptr %45, i64 -1
  store ptr %46, ptr %18, align 8, !tbaa !11
  br label %47

47:                                               ; preds = %70, %36
  %48 = load ptr, ptr %17, align 8, !tbaa !11
  %49 = load ptr, ptr %7, align 8, !tbaa !11
  %50 = icmp uge ptr %48, %49
  br i1 %50, label %51, label %75

51:                                               ; preds = %47
  %52 = load ptr, ptr %17, align 8, !tbaa !11
  %53 = load i8, ptr %52, align 1, !tbaa !13
  %54 = zext i8 %53 to i32
  %55 = load ptr, ptr %18, align 8, !tbaa !11
  %56 = load i8, ptr %55, align 1, !tbaa !13
  %57 = zext i8 %56 to i32
  %58 = icmp sgt i32 %54, %57
  br i1 %58, label %59, label %60

59:                                               ; preds = %51
  store i32 1, ptr %6, align 4
  store i32 1, ptr %23, align 4
  br label %213

60:                                               ; preds = %51
  %61 = load ptr, ptr %17, align 8, !tbaa !11
  %62 = load i8, ptr %61, align 1, !tbaa !13
  %63 = zext i8 %62 to i32
  %64 = load ptr, ptr %18, align 8, !tbaa !11
  %65 = load i8, ptr %64, align 1, !tbaa !13
  %66 = zext i8 %65 to i32
  %67 = icmp slt i32 %63, %66
  br i1 %67, label %68, label %69

68:                                               ; preds = %60
  store i32 -1, ptr %6, align 4
  store i32 1, ptr %23, align 4
  br label %213

69:                                               ; preds = %60
  br label %70

70:                                               ; preds = %69
  %71 = load ptr, ptr %17, align 8, !tbaa !11
  %72 = getelementptr inbounds i8, ptr %71, i32 -1
  store ptr %72, ptr %17, align 8, !tbaa !11
  %73 = load ptr, ptr %18, align 8, !tbaa !11
  %74 = getelementptr inbounds i8, ptr %73, i32 -1
  store ptr %74, ptr %18, align 8, !tbaa !11
  br label %47, !llvm.loop !118

75:                                               ; preds = %47
  store i32 0, ptr %6, align 4
  store i32 1, ptr %23, align 4
  br label %213

76:                                               ; preds = %5
  %77 = load i32, ptr %8, align 4, !tbaa !7
  %78 = load i32, ptr %10, align 4, !tbaa !7
  %79 = load i32, ptr %11, align 4, !tbaa !7
  %80 = icmp sle i32 %79, 49
  br i1 %80, label %81, label %87

81:                                               ; preds = %76
  %82 = load i32, ptr %11, align 4, !tbaa !7
  %83 = sext i32 %82 to i64
  %84 = getelementptr inbounds [50 x i8], ptr @_ZL8d2utable, i64 0, i64 %83
  %85 = load i8, ptr %84, align 1, !tbaa !13
  %86 = zext i8 %85 to i32
  br label %92

87:                                               ; preds = %76
  %88 = load i32, ptr %11, align 4, !tbaa !7
  %89 = add nsw i32 %88, 1
  %90 = sub nsw i32 %89, 1
  %91 = sdiv i32 %90, 1
  br label %92

92:                                               ; preds = %87, %81
  %93 = phi i32 [ %86, %81 ], [ %91, %87 ]
  %94 = add nsw i32 %78, %93
  %95 = icmp sgt i32 %77, %94
  br i1 %95, label %96, label %97

96:                                               ; preds = %92
  store i32 1, ptr %6, align 4
  store i32 1, ptr %23, align 4
  br label %213

97:                                               ; preds = %92
  %98 = load i32, ptr %8, align 4, !tbaa !7
  %99 = add nsw i32 %98, 1
  %100 = load i32, ptr %10, align 4, !tbaa !7
  %101 = load i32, ptr %11, align 4, !tbaa !7
  %102 = icmp sle i32 %101, 49
  br i1 %102, label %103, label %109

103:                                              ; preds = %97
  %104 = load i32, ptr %11, align 4, !tbaa !7
  %105 = sext i32 %104 to i64
  %106 = getelementptr inbounds [50 x i8], ptr @_ZL8d2utable, i64 0, i64 %105
  %107 = load i8, ptr %106, align 1, !tbaa !13
  %108 = zext i8 %107 to i32
  br label %114

109:                                              ; preds = %97
  %110 = load i32, ptr %11, align 4, !tbaa !7
  %111 = add nsw i32 %110, 1
  %112 = sub nsw i32 %111, 1
  %113 = sdiv i32 %112, 1
  br label %114

114:                                              ; preds = %109, %103
  %115 = phi i32 [ %108, %103 ], [ %113, %109 ]
  %116 = add nsw i32 %100, %115
  %117 = icmp slt i32 %99, %116
  br i1 %117, label %118, label %119

118:                                              ; preds = %114
  store i32 -1, ptr %6, align 4
  store i32 1, ptr %23, align 4
  br label %213

119:                                              ; preds = %114
  %120 = load i32, ptr %10, align 4, !tbaa !7
  %121 = load i32, ptr %11, align 4, !tbaa !7
  %122 = icmp sle i32 %121, 49
  br i1 %122, label %123, label %129

123:                                              ; preds = %119
  %124 = load i32, ptr %11, align 4, !tbaa !7
  %125 = sext i32 %124 to i64
  %126 = getelementptr inbounds [50 x i8], ptr @_ZL8d2utable, i64 0, i64 %125
  %127 = load i8, ptr %126, align 1, !tbaa !13
  %128 = zext i8 %127 to i32
  br label %134

129:                                              ; preds = %119
  %130 = load i32, ptr %11, align 4, !tbaa !7
  %131 = add nsw i32 %130, 1
  %132 = sub nsw i32 %131, 1
  %133 = sdiv i32 %132, 1
  br label %134

134:                                              ; preds = %129, %123
  %135 = phi i32 [ %128, %123 ], [ %133, %129 ]
  %136 = add nsw i32 %120, %135
  store i32 %136, ptr %16, align 4, !tbaa !7
  %137 = load i32, ptr %16, align 4, !tbaa !7
  %138 = load i32, ptr %8, align 4, !tbaa !7
  %139 = icmp slt i32 %137, %138
  br i1 %139, label %140, label %142

140:                                              ; preds = %134
  %141 = load i32, ptr %8, align 4, !tbaa !7
  store i32 %141, ptr %16, align 4, !tbaa !7
  br label %142

142:                                              ; preds = %140, %134
  %143 = load i32, ptr %16, align 4, !tbaa !7
  %144 = add nsw i32 %143, 2
  store i32 %144, ptr %16, align 4, !tbaa !7
  %145 = getelementptr inbounds [73 x i8], ptr %13, i64 0, i64 0
  store ptr %145, ptr %12, align 8, !tbaa !11
  %146 = load i32, ptr %16, align 4, !tbaa !7
  %147 = sext i32 %146 to i64
  %148 = mul i64 %147, 1
  %149 = icmp ugt i64 %148, 73
  br i1 %149, label %150, label %160

150:                                              ; preds = %142
  %151 = load i32, ptr %16, align 4, !tbaa !7
  %152 = sext i32 %151 to i64
  %153 = mul i64 %152, 1
  %154 = call noalias ptr @uprv_malloc_77(i64 noundef %153) #9
  store ptr %154, ptr %14, align 8, !tbaa !11
  %155 = load ptr, ptr %14, align 8, !tbaa !11
  %156 = icmp eq ptr %155, null
  br i1 %156, label %157, label %158

157:                                              ; preds = %150
  store i32 -2147483648, ptr %6, align 4
  store i32 1, ptr %23, align 4
  br label %213

158:                                              ; preds = %150
  %159 = load ptr, ptr %14, align 8, !tbaa !11
  store ptr %159, ptr %12, align 8, !tbaa !11
  br label %160

160:                                              ; preds = %158, %142
  %161 = load i32, ptr %11, align 4, !tbaa !7
  %162 = sdiv i32 %161, 1
  store i32 %162, ptr %20, align 4, !tbaa !7
  %163 = load i32, ptr %11, align 4, !tbaa !7
  %164 = srem i32 %163, 1
  store i32 %164, ptr %21, align 4, !tbaa !7
  %165 = load ptr, ptr %7, align 8, !tbaa !11
  %166 = load i32, ptr %8, align 4, !tbaa !7
  %167 = load ptr, ptr %9, align 8, !tbaa !11
  %168 = load i32, ptr %10, align 4, !tbaa !7
  %169 = load i32, ptr %20, align 4, !tbaa !7
  %170 = load ptr, ptr %12, align 8, !tbaa !11
  %171 = load i32, ptr %21, align 4, !tbaa !7
  %172 = sext i32 %171 to i64
  %173 = getelementptr inbounds [10 x i32], ptr @_ZL9DECPOWERS, i64 0, i64 %172
  %174 = load i32, ptr %173, align 4, !tbaa !7
  %175 = sub nsw i32 0, %174
  %176 = call noundef i32 @_ZL13decUnitAddSubPKhiS0_iiPhi(ptr noundef %165, i32 noundef %166, ptr noundef %167, i32 noundef %168, i32 noundef %169, ptr noundef %170, i32 noundef %175)
  store i32 %176, ptr %15, align 4, !tbaa !7
  %177 = load i32, ptr %15, align 4, !tbaa !7
  %178 = icmp slt i32 %177, 0
  br i1 %178, label %179, label %180

179:                                              ; preds = %160
  store i32 -1, ptr %22, align 4, !tbaa !7
  br label %206

180:                                              ; preds = %160
  %181 = load ptr, ptr %12, align 8, !tbaa !11
  store ptr %181, ptr %19, align 8, !tbaa !11
  br label %182

182:                                              ; preds = %197, %180
  %183 = load ptr, ptr %19, align 8, !tbaa !11
  %184 = load ptr, ptr %12, align 8, !tbaa !11
  %185 = load i32, ptr %15, align 4, !tbaa !7
  %186 = sext i32 %185 to i64
  %187 = getelementptr inbounds i8, ptr %184, i64 %186
  %188 = getelementptr inbounds i8, ptr %187, i64 -1
  %189 = icmp ult ptr %183, %188
  br i1 %189, label %190, label %195

190:                                              ; preds = %182
  %191 = load ptr, ptr %19, align 8, !tbaa !11
  %192 = load i8, ptr %191, align 1, !tbaa !13
  %193 = zext i8 %192 to i32
  %194 = icmp eq i32 %193, 0
  br label %195

195:                                              ; preds = %190, %182
  %196 = phi i1 [ false, %182 ], [ %194, %190 ]
  br i1 %196, label %197, label %200

197:                                              ; preds = %195
  %198 = load ptr, ptr %19, align 8, !tbaa !11
  %199 = getelementptr inbounds nuw i8, ptr %198, i32 1
  store ptr %199, ptr %19, align 8, !tbaa !11
  br label %182, !llvm.loop !119

200:                                              ; preds = %195
  %201 = load ptr, ptr %19, align 8, !tbaa !11
  %202 = load i8, ptr %201, align 1, !tbaa !13
  %203 = zext i8 %202 to i32
  %204 = icmp eq i32 %203, 0
  %205 = select i1 %204, i32 0, i32 1
  store i32 %205, ptr %22, align 4, !tbaa !7
  br label %206

206:                                              ; preds = %200, %179
  %207 = load ptr, ptr %14, align 8, !tbaa !11
  %208 = icmp ne ptr %207, null
  br i1 %208, label %209, label %211

209:                                              ; preds = %206
  %210 = load ptr, ptr %14, align 8, !tbaa !11
  call void @uprv_free_77(ptr noundef %210)
  br label %211

211:                                              ; preds = %209, %206
  %212 = load i32, ptr %22, align 4, !tbaa !7
  store i32 %212, ptr %6, align 4
  store i32 1, ptr %23, align 4
  br label %213

213:                                              ; preds = %211, %157, %118, %96, %75, %68, %59, %35, %30
  call void @llvm.lifetime.end.p0(i64 4, ptr %22) #8
  call void @llvm.lifetime.end.p0(i64 4, ptr %21) #8
  call void @llvm.lifetime.end.p0(i64 4, ptr %20) #8
  call void @llvm.lifetime.end.p0(i64 8, ptr %19) #8
  call void @llvm.lifetime.end.p0(i64 8, ptr %18) #8
  call void @llvm.lifetime.end.p0(i64 8, ptr %17) #8
  call void @llvm.lifetime.end.p0(i64 4, ptr %16) #8
  call void @llvm.lifetime.end.p0(i64 4, ptr %15) #8
  call void @llvm.lifetime.end.p0(i64 8, ptr %14) #8
  call void @llvm.lifetime.end.p0(i64 73, ptr %13) #8
  call void @llvm.lifetime.end.p0(i64 8, ptr %12) #8
  %214 = load i32, ptr %6, align 4
  ret i32 %214
}