; Function Attrs: mustprogress uwtable
define internal fastcc noundef range(i32 -2147483648, 2) i32 @_ZL14decUnitComparePKhiS0_ii(ptr noundef %0, i32 noundef %1, ptr noundef readonly captures(none) %2, i32 noundef range(i32 0, -2147483648) %3, i32 noundef %4) unnamed_addr #3 {
  %6 = alloca [73 x i8], align 16
  call void @llvm.lifetime.start.p0(i64 73, ptr nonnull %6) #16
  %7 = icmp eq i32 %4, 0
  br i1 %7, label %8, label %23

8:                                                ; preds = %5
  %9 = icmp sgt i32 %1, %3
  br i1 %9, label %.loopexit, label %10

10:                                               ; preds = %8
  %11 = icmp slt i32 %1, %3
  br i1 %11, label %.loopexit, label %12

12:                                               ; preds = %10
  %13 = zext nneg i32 %1 to i64
  %14 = getelementptr inbounds nuw i8, ptr %0, i64 %13
  %15 = getelementptr inbounds nuw i8, ptr %2, i64 %13
  br label %16

16:                                               ; preds = %21, %12
  %.pn = phi ptr [ %14, %12 ], [ %.063, %21 ]
  %.pn76 = phi ptr [ %15, %12 ], [ %.062, %21 ]
  %.062 = getelementptr inbounds i8, ptr %.pn76, i64 -1
  %.063 = getelementptr inbounds i8, ptr %.pn, i64 -1
  %.not75 = icmp ult ptr %.063, %0
  br i1 %.not75, label %.loopexit, label %17

17:                                               ; preds = %16
  %18 = load i8, ptr %.063, align 1, !tbaa !10
  %19 = load i8, ptr %.062, align 1, !tbaa !10
  %20 = icmp ugt i8 %18, %19
  br i1 %20, label %.loopexit, label %21

21:                                               ; preds = %17
  %22 = icmp ult i8 %18, %19
  br i1 %22, label %.loopexit, label %16, !llvm.loop !48

23:                                               ; preds = %5
  %24 = icmp slt i32 %4, 50
  br i1 %24, label %25, label %.thread

25:                                               ; preds = %23
  %26 = sext i32 %4 to i64
  %27 = getelementptr inbounds [50 x i8], ptr @_ZL8d2utable, i64 0, i64 %26
  %28 = load i8, ptr %27, align 1, !tbaa !10
  %29 = zext i8 %28 to i32
  %30 = add nuw nsw i32 %3, %29
  %31 = icmp sgt i32 %1, %30
  br i1 %31, label %.loopexit, label %.thread78

.thread:                                          ; preds = %23
  %32 = add nuw nsw i32 %4, %3
  %33 = icmp sgt i32 %1, %32
  br i1 %33, label %.loopexit, label %34

34:                                               ; preds = %.thread
  %35 = add nsw i32 %1, 1
  %36 = icmp slt i32 %35, %32
  br i1 %36, label %.loopexit, label %.thread79

.thread78:                                        ; preds = %25
  %37 = add nsw i32 %1, 1
  %38 = icmp slt i32 %37, %30
  br i1 %38, label %.loopexit, label %.thread79

.thread79:                                        ; preds = %.thread78, %34
  %.pre-phi = phi i32 [ %32, %34 ], [ %30, %.thread78 ]
  %39 = icmp samesign ugt i32 %.pre-phi, 71
  br i1 %39, label %40, label %45

40:                                               ; preds = %.thread79
  %41 = add nuw nsw i32 %.pre-phi, 2
  %42 = zext nneg i32 %41 to i64
  %43 = tail call noalias ptr @uprv_malloc_77(i64 noundef %42) #17
  %44 = icmp eq ptr %43, null
  br i1 %44, label %.loopexit, label %45

45:                                               ; preds = %40, %.thread79
  %.065 = phi ptr [ null, %.thread79 ], [ %43, %40 ]
  %.060 = phi ptr [ %6, %.thread79 ], [ %43, %40 ]
  %46 = call fastcc noundef i32 @_ZL13decUnitAddSubPKhiS0_iiPhi(ptr noundef %0, i32 noundef %1, ptr noundef %2, i32 noundef %3, i32 noundef %4, ptr noundef nonnull %.060, i32 noundef -1)
  %47 = icmp slt i32 %46, 0
  br i1 %47, label %59, label %.preheader

.preheader:                                       ; preds = %45
  %48 = zext nneg i32 %46 to i64
  %49 = getelementptr inbounds nuw i8, ptr %.060, i64 %48
  %50 = getelementptr inbounds i8, ptr %49, i64 -1
  %51 = icmp ult ptr %.060, %50
  br i1 %51, label %.lr.ph, label %.critedge

.lr.ph:                                           ; preds = %.preheader, %54
  %.06180 = phi ptr [ %55, %54 ], [ %.060, %.preheader ]
  %52 = load i8, ptr %.06180, align 1, !tbaa !10
  %53 = icmp eq i8 %52, 0
  br i1 %53, label %54, label %.critedge

54:                                               ; preds = %.lr.ph
  %55 = getelementptr inbounds nuw i8, ptr %.06180, i64 1
  %exitcond.not = icmp eq ptr %55, %50
  br i1 %exitcond.not, label %.critedge, label %.lr.ph, !llvm.loop !101

.critedge:                                        ; preds = %.lr.ph, %54, %.preheader
  %.061.lcssa = phi ptr [ %.060, %.preheader ], [ %50, %54 ], [ %.06180, %.lr.ph ]
  %56 = load i8, ptr %.061.lcssa, align 1, !tbaa !10
  %57 = icmp ne i8 %56, 0
  %58 = zext i1 %57 to i32
  br label %59

59:                                               ; preds = %45, %.critedge
  %.0 = phi i32 [ %58, %.critedge ], [ -1, %45 ]
  %.not = icmp eq ptr %.065, null
  br i1 %.not, label %.loopexit, label %60

60:                                               ; preds = %59
  call void @uprv_free_77(ptr noundef nonnull %.065)
  br label %.loopexit

.loopexit:                                        ; preds = %16, %21, %17, %.thread78, %.thread, %59, %60, %40, %34, %25, %10, %8
  %.059 = phi i32 [ 1, %8 ], [ -1, %10 ], [ 1, %25 ], [ -1, %34 ], [ -2147483648, %40 ], [ %.0, %60 ], [ %.0, %59 ], [ 1, %.thread ], [ -1, %.thread78 ], [ 0, %16 ], [ -1, %21 ], [ 1, %17 ]
  call void @llvm.lifetime.end.p0(i64 73, ptr nonnull %6) #16
  ret i32 %.059
}